target datalayout = "e-m:e-p270:32:32-p271:32:32-p272:64:64-i64:64-i128:128-f80:128-n8:16:32:64-S128"
target triple = "x86_64-pc-linux-gnu"

%"struct.gmx::nonbonded_verlet_t" = type { %"class.std::unique_ptr", %"class.std::unique_ptr.2", %"class.std::unique_ptr.10", %"struct.gmx::NbnxmKernelSetup", %"class.std::unique_ptr.18", %"class.std::unique_ptr.26", ptr, ptr }
%"class.std::unique_ptr" = type { %"struct.std::__uniq_ptr_data" }
%"struct.std::__uniq_ptr_data" = type { %"class.std::__uniq_ptr_impl" }
%"class.std::__uniq_ptr_impl" = type { %"class.std::tuple" }
%"class.std::tuple" = type { %"struct.std::_Tuple_impl" }
%"struct.std::_Tuple_impl" = type { %"struct.std::_Head_base.1" }
%"struct.std::_Head_base.1" = type { ptr }
%"class.std::unique_ptr.2" = type { %"struct.std::__uniq_ptr_data.3" }
%"struct.std::__uniq_ptr_data.3" = type { %"class.std::__uniq_ptr_impl.4" }
%"class.std::__uniq_ptr_impl.4" = type { %"class.std::tuple.5" }
%"class.std::tuple.5" = type { %"struct.std::_Tuple_impl.6" }
%"struct.std::_Tuple_impl.6" = type { %"struct.std::_Head_base.9" }
%"struct.std::_Head_base.9" = type { ptr }
%"class.std::unique_ptr.10" = type { %"struct.std::__uniq_ptr_data.11" }
%"struct.std::__uniq_ptr_data.11" = type { %"class.std::__uniq_ptr_impl.12" }
%"class.std::__uniq_ptr_impl.12" = type { %"class.std::tuple.13" }
%"class.std::tuple.13" = type { %"struct.std::_Tuple_impl.14" }
%"struct.std::_Tuple_impl.14" = type { %"struct.std::_Head_base.17" }
%"struct.std::_Head_base.17" = type { ptr }
%"struct.gmx::NbnxmKernelSetup" = type { i32, i32 }
%"class.std::unique_ptr.18" = type { %"struct.std::__uniq_ptr_data.19" }
%"struct.std::__uniq_ptr_data.19" = type { %"class.std::__uniq_ptr_impl.20" }
%"class.std::__uniq_ptr_impl.20" = type { %"class.std::tuple.21" }
%"class.std::tuple.21" = type { %"struct.std::_Tuple_impl.22" }
%"struct.std::_Tuple_impl.22" = type { %"struct.std::_Head_base.25" }
%"struct.std::_Head_base.25" = type { ptr }
%"class.std::unique_ptr.26" = type { %"struct.std::__uniq_ptr_data.27" }
%"struct.std::__uniq_ptr_data.27" = type { %"class.std::__uniq_ptr_impl.28" }
%"class.std::__uniq_ptr_impl.28" = type { %"class.std::tuple.29" }
%"class.std::tuple.29" = type { %"struct.std::_Tuple_impl.30" }
%"struct.std::_Tuple_impl.30" = type { %"struct.std::_Head_base.33" }
%"struct.std::_Head_base.33" = type { ptr }
%"class.gmx::PairSearch" = type { %"class.gmx::GridSet", %"class.std::vector.46", %"struct.gmx::SearchCycleCounting" }
%"class.gmx::GridSet" = type { %"struct.gmx::GridSet::DomainSetup", %"class.std::vector", i32, %"struct.gmx::GridSetData", i32, i8, i8, i32, [3 x [3 x float]], i32, i32, %"class.std::vector.36", i32, %"class.std::vector.41" }
%"struct.gmx::GridSet::DomainSetup" = type { i32, i8, i8, %"struct.std::array", ptr }
%"struct.std::array" = type { [3 x i8] }
%"class.std::vector" = type { %"struct.std::_Vector_base" }
%"struct.std::_Vector_base" = type { %"struct.std::_Vector_base<gmx::Grid, std::allocator<gmx::Grid>>::_Vector_impl" }
%"struct.std::_Vector_base<gmx::Grid, std::allocator<gmx::Grid>>::_Vector_impl" = type { %"struct.std::_Vector_base<gmx::Grid, std::allocator<gmx::Grid>>::_Vector_impl_data" }
%"struct.std::_Vector_base<gmx::Grid, std::allocator<gmx::Grid>>::_Vector_impl_data" = type { ptr, ptr, ptr }
%"struct.gmx::GridSetData" = type { %"class.std::vector.34", %"class.std::vector.34" }
%"class.std::vector.34" = type { %"struct.std::_Vector_base.35" }
%"struct.std::_Vector_base.35" = type { %"struct.std::_Vector_base<int, gmx::Allocator<int, gmx::HostAllocationPolicy>>::_Vector_impl" }
%"struct.std::_Vector_base<int, gmx::Allocator<int, gmx::HostAllocationPolicy>>::_Vector_impl" = type { %"class.gmx::Allocator.base", %"struct.std::_Vector_base<int, gmx::Allocator<int, gmx::HostAllocationPolicy>>::_Vector_impl_data" }
%"class.gmx::Allocator.base" = type { %"class.gmx::HostAllocationPolicy.base" }
%"class.gmx::HostAllocationPolicy.base" = type <{ i32, i8 }>
%"struct.std::_Vector_base<int, gmx::Allocator<int, gmx::HostAllocationPolicy>>::_Vector_impl_data" = type { ptr, ptr, ptr }
%"class.std::vector.36" = type { %"struct.std::_Vector_base.37" }
%"struct.std::_Vector_base.37" = type { %"struct.std::_Vector_base<gmx::GridWork, std::allocator<gmx::GridWork>>::_Vector_impl" }
%"struct.std::_Vector_base<gmx::GridWork, std::allocator<gmx::GridWork>>::_Vector_impl" = type { %"struct.std::_Vector_base<gmx::GridWork, std::allocator<gmx::GridWork>>::_Vector_impl_data" }
%"struct.std::_Vector_base<gmx::GridWork, std::allocator<gmx::GridWork>>::_Vector_impl_data" = type { ptr, ptr, ptr }
%"class.std::vector.41" = type { %"struct.std::_Vector_base.42" }
%"struct.std::_Vector_base.42" = type { %"struct.std::_Vector_base<int, std::allocator<int>>::_Vector_impl" }
%"struct.std::_Vector_base<int, std::allocator<int>>::_Vector_impl" = type { %"struct.std::_Vector_base<int, std::allocator<int>>::_Vector_impl_data" }
%"struct.std::_Vector_base<int, std::allocator<int>>::_Vector_impl_data" = type { ptr, ptr, ptr }
%"class.std::vector.46" = type { %"struct.std::_Vector_base.47" }
%"struct.std::_Vector_base.47" = type { %"struct.std::_Vector_base<gmx::PairsearchWork, std::allocator<gmx::PairsearchWork>>::_Vector_impl" }
%"struct.std::_Vector_base<gmx::PairsearchWork, std::allocator<gmx::PairsearchWork>>::_Vector_impl" = type { %"struct.std::_Vector_base<gmx::PairsearchWork, std::allocator<gmx::PairsearchWork>>::_Vector_impl_data" }
%"struct.std::_Vector_base<gmx::PairsearchWork, std::allocator<gmx::PairsearchWork>>::_Vector_impl_data" = type { ptr, ptr, ptr }
%"struct.gmx::SearchCycleCounting" = type { i8, i32, [3 x %"class.gmx::nbnxn_cycle_t"] }
%"class.gmx::nbnxn_cycle_t" = type { i32, i64, i64 }
%"class.gmx::BasicVector" = type { [3 x float] }
%"class.gmx::Grid" = type <{ %"struct.gmx::Grid::Geometry", i32, %"struct.gmx::GridDimensions", i32, i32, i32, i32, i32, [4 x i8], %"class.std::vector.34", %"class.std::vector.34", %"class.std::vector.41", %"class.std::vector.68", %"class.std::vector.73", %"class.std::vector.73", %"class.gmx::ArrayRef.76", %"class.std::vector.79", ptr, %"class.std::vector.41", %"class.std::vector.82", i32, [4 x i8] }>
%"struct.gmx::Grid::Geometry" = type { i8, i32, i32, i32, i32, i32 }
%"struct.gmx::GridDimensions" = type { %"class.gmx::BasicVector", %"class.gmx::BasicVector", %"class.gmx::BasicVector", float, float, [2 x float], [2 x float], [2 x i32] }
%"class.std::vector.68" = type { %"struct.std::_Vector_base.69" }
%"struct.std::_Vector_base.69" = type { %"struct.std::_Vector_base<gmx::BoundingBox1D, std::allocator<gmx::BoundingBox1D>>::_Vector_impl" }
%"struct.std::_Vector_base<gmx::BoundingBox1D, std::allocator<gmx::BoundingBox1D>>::_Vector_impl" = type { %"struct.std::_Vector_base<gmx::BoundingBox1D, std::allocator<gmx::BoundingBox1D>>::_Vector_impl_data" }
%"struct.std::_Vector_base<gmx::BoundingBox1D, std::allocator<gmx::BoundingBox1D>>::_Vector_impl_data" = type { ptr, ptr, ptr }
%"class.std::vector.73" = type { %"struct.std::_Vector_base.74" }
%"struct.std::_Vector_base.74" = type { %"struct.std::_Vector_base<gmx::BoundingBox, gmx::Allocator<gmx::BoundingBox, gmx::AlignedAllocationPolicy>>::_Vector_impl" }
%"struct.std::_Vector_base<gmx::BoundingBox, gmx::Allocator<gmx::BoundingBox, gmx::AlignedAllocationPolicy>>::_Vector_impl" = type { %"struct.std::_Vector_base<gmx::BoundingBox, gmx::Allocator<gmx::BoundingBox, gmx::AlignedAllocationPolicy>>::_Vector_impl_data" }
%"struct.std::_Vector_base<gmx::BoundingBox, gmx::Allocator<gmx::BoundingBox, gmx::AlignedAllocationPolicy>>::_Vector_impl_data" = type { ptr, ptr, ptr }
%"class.gmx::ArrayRef.76" = type { %"struct.gmx::ArrayRefIter.77", %"struct.gmx::ArrayRefIter.77" }
%"struct.gmx::ArrayRefIter.77" = type { ptr }
%"class.std::vector.79" = type { %"struct.std::_Vector_base.80" }
%"struct.std::_Vector_base.80" = type { %"struct.std::_Vector_base<float, gmx::Allocator<float, gmx::AlignedAllocationPolicy>>::_Vector_impl" }
%"struct.std::_Vector_base<float, gmx::Allocator<float, gmx::AlignedAllocationPolicy>>::_Vector_impl" = type { %"struct.std::_Vector_base<float, gmx::Allocator<float, gmx::AlignedAllocationPolicy>>::_Vector_impl_data" }
%"struct.std::_Vector_base<float, gmx::Allocator<float, gmx::AlignedAllocationPolicy>>::_Vector_impl_data" = type { ptr, ptr, ptr }
%"class.std::vector.82" = type { %"struct.std::_Vector_base.83" }
%"struct.std::_Vector_base.83" = type { %"struct.std::_Vector_base<unsigned int, std::allocator<unsigned int>>::_Vector_impl" }
%"struct.std::_Vector_base<unsigned int, std::allocator<unsigned int>>::_Vector_impl" = type { %"struct.std::_Vector_base<unsigned int, std::allocator<unsigned int>>::_Vector_impl_data" }
%"struct.std::_Vector_base<unsigned int, std::allocator<unsigned int>>::_Vector_impl_data" = type { ptr, ptr, ptr }

; Function Attrs: mustprogress nounwind uwtable
define linkonce_odr noundef nonnull align 8 dereferenceable(8) ptr @_ZNSt10_Head_baseILm0EPN3gmx10PairSearchELb0EE7_M_headERKS3_(ptr noundef nonnull align 8 dereferenceable(8) %0) #1 comdat align 2 {
  %2 = alloca ptr, align 8
  store ptr %0, ptr %2, align 8, !tbaa !55
  %3 = load ptr, ptr %2, align 8, !tbaa !55
  %4 = getelementptr inbounds nuw %"struct.std::_Head_base.9", ptr %3, i32 0, i32 0
  ret ptr %4
}

; Function Attrs: mustprogress nounwind uwtable
define linkonce_odr noundef nonnull align 8 dereferenceable(8) ptr @_ZNSt11_Tuple_implILm0EJPN3gmx10PairSearchESt14default_deleteIS1_EEE7_M_headERKS5_(ptr noundef nonnull align 8 dereferenceable(8) %0) #1 comdat align 2 {
  %2 = alloca ptr, align 8
  store ptr %0, ptr %2, align 8, !tbaa !53
  %3 = load ptr, ptr %2, align 8, !tbaa !53
  %4 = call noundef nonnull align 8 dereferenceable(8) ptr @_ZNSt10_Head_baseILm0EPN3gmx10PairSearchELb0EE7_M_headERKS3_(ptr noundef nonnull align 8 dereferenceable(8) %3) #17
  ret ptr %4
}

; Function Attrs: mustprogress nounwind uwtable
define linkonce_odr noundef nonnull align 8 dereferenceable(8) ptr @_ZSt12__get_helperILm0EPN3gmx10PairSearchEJSt14default_deleteIS1_EEERKT0_RKSt11_Tuple_implIXT_EJS5_DpT1_EE(ptr noundef nonnull align 8 dereferenceable(8) %0) #1 comdat {
  %2 = alloca ptr, align 8
  store ptr %0, ptr %2, align 8, !tbaa !53
  %3 = load ptr, ptr %2, align 8, !tbaa !53
  %4 = call noundef nonnull align 8 dereferenceable(8) ptr @_ZNSt11_Tuple_implILm0EJPN3gmx10PairSearchESt14default_deleteIS1_EEE7_M_headERKS5_(ptr noundef nonnull align 8 dereferenceable(8) %3) #17
  ret ptr %4
}

; Function Attrs: mustprogress nounwind uwtable
define linkonce_odr noundef nonnull align 8 dereferenceable(8) ptr @_ZSt3getILm0EJPN3gmx10PairSearchESt14default_deleteIS1_EEERKNSt13tuple_elementIXT_ESt5tupleIJDpT0_EEE4typeERKS9_(ptr noundef nonnull align 8 dereferenceable(8) %0) #1 comdat {
  %2 = alloca ptr, align 8
  store ptr %0, ptr %2, align 8, !tbaa !51
  %3 = load ptr, ptr %2, align 8, !tbaa !51
  %4 = call noundef nonnull align 8 dereferenceable(8) ptr @_ZSt12__get_helperILm0EPN3gmx10PairSearchEJSt14default_deleteIS1_EEERKT0_RKSt11_Tuple_implIXT_EJS5_DpT1_EE(ptr noundef nonnull align 8 dereferenceable(8) %3) #17
  ret ptr %4
}

; Function Attrs: mustprogress nounwind uwtable
define linkonce_odr noundef ptr @_ZNKSt15__uniq_ptr_implIN3gmx10PairSearchESt14default_deleteIS1_EE6_M_ptrEv(ptr noundef nonnull align 8 dereferenceable(8) %0) #1 comdat align 2 {
  %2 = alloca ptr, align 8
  store ptr %0, ptr %2, align 8, !tbaa !49
  %3 = load ptr, ptr %2, align 8
  %4 = getelementptr inbounds nuw %"class.std::__uniq_ptr_impl.4", ptr %3, i32 0, i32 0
  %5 = call noundef nonnull align 8 dereferenceable(8) ptr @_ZSt3getILm0EJPN3gmx10PairSearchESt14default_deleteIS1_EEERKNSt13tuple_elementIXT_ESt5tupleIJDpT0_EEE4typeERKS9_(ptr noundef nonnull align 8 dereferenceable(8) %4) #17
  %6 = load ptr, ptr %5, align 8, !tbaa !11
  ret ptr %6
}

; Function Attrs: mustprogress nounwind uwtable
define linkonce_odr noundef i32 @_ZNK3gmx4Grid12atomIndexEndEv(ptr noundef nonnull align 8 dereferenceable(380) %0) #1 comdat align 2 {
  %2 = alloca ptr, align 8
  store ptr %0, ptr %2, align 8, !tbaa !158
  %3 = load ptr, ptr %2, align 8
  %4 = getelementptr inbounds nuw %"class.gmx::Grid", ptr %3, i32 0, i32 4
  %5 = load i32, ptr %4, align 4, !tbaa !159
  %6 = getelementptr inbounds nuw %"class.gmx::Grid", ptr %3, i32 0, i32 3
  %7 = load i32, ptr %6, align 8, !tbaa !185
  %8 = add nsw i32 %5, %7
  %9 = getelementptr inbounds nuw %"class.gmx::Grid", ptr %3, i32 0, i32 0
  %10 = getelementptr inbounds nuw %"struct.gmx::Grid::Geometry", ptr %9, i32 0, i32 3
  %11 = load i32, ptr %10, align 4, !tbaa !186
  %12 = mul nsw i32 %8, %11
  ret i32 %12
}

; Function Attrs: mustprogress nounwind uwtable
define linkonce_odr noundef nonnull align 8 dereferenceable(380) ptr @_ZNKSt6vectorIN3gmx4GridESaIS1_EEixEm(ptr noundef nonnull align 8 dereferenceable(24) %0, i64 noundef %1) #1 comdat align 2 {
  %3 = alloca ptr, align 8
  %4 = alloca i64, align 8
  store ptr %0, ptr %3, align 8, !tbaa !187
  store i64 %1, ptr %4, align 8, !tbaa !123
  %5 = load ptr, ptr %3, align 8
  %6 = getelementptr inbounds nuw %"struct.std::_Vector_base", ptr %5, i32 0, i32 0
  %7 = getelementptr inbounds nuw %"struct.std::_Vector_base<gmx::Grid, std::allocator<gmx::Grid>>::_Vector_impl_data", ptr %6, i32 0, i32 0
  %8 = load ptr, ptr %7, align 8, !tbaa !189
  %9 = load i64, ptr %4, align 8, !tbaa !123
  %10 = getelementptr inbounds nuw %"class.gmx::Grid", ptr %8, i64 %9
  ret ptr %10
}

; Function Attrs: mustprogress nounwind uwtable
define linkonce_odr noundef ptr @_ZNKSt10unique_ptrIN3gmx10PairSearchESt14default_deleteIS1_EE3getEv(ptr noundef nonnull align 8 dereferenceable(8) %0) #1 comdat align 2 {
  %2 = alloca ptr, align 8
  store ptr %0, ptr %2, align 8, !tbaa !9
  %3 = load ptr, ptr %2, align 8
  %4 = getelementptr inbounds nuw %"class.std::unique_ptr.2", ptr %3, i32 0, i32 0
  %5 = call noundef ptr @_ZNKSt15__uniq_ptr_implIN3gmx10PairSearchESt14default_deleteIS1_EE6_M_ptrEv(ptr noundef nonnull align 8 dereferenceable(8) %4) #17
  ret ptr %5
}

; Function Attrs: mustprogress nounwind uwtable
define linkonce_odr noundef i32 @_ZNK3gmx7GridSet17numRealAtomsLocalEv(ptr noundef nonnull align 8 dereferenceable(232) %0) #1 comdat align 2 {
  %2 = alloca ptr, align 8
  store ptr %0, ptr %2, align 8, !tbaa !13
  %3 = load ptr, ptr %2, align 8
  %4 = getelementptr inbounds nuw %"class.gmx::GridSet", ptr %3, i32 0, i32 9
  %5 = load i32, ptr %4, align 8, !tbaa !413
  ret i32 %5
}

; Function Attrs: mustprogress nounwind uwtable
define linkonce_odr noundef i32 @_ZNK3gmx7GridSet17numRealAtomsTotalEv(ptr noundef nonnull align 8 dereferenceable(232) %0) #1 comdat align 2 {
  %2 = alloca ptr, align 8
  store ptr %0, ptr %2, align 8, !tbaa !13
  %3 = load ptr, ptr %2, align 8
  %4 = getelementptr inbounds nuw %"class.gmx::GridSet", ptr %3, i32 0, i32 10
  %5 = load i32, ptr %4, align 4, !tbaa !412
  ret i32 %5
}

; Function Attrs: mustprogress nounwind uwtable
define linkonce_odr noundef i32 @_ZNK3gmx7GridSet17numGridAtomsLocalEv(ptr noundef nonnull align 8 dereferenceable(232) %0) #1 comdat align 2 {
  %2 = alloca ptr, align 8
  store ptr %0, ptr %2, align 8, !tbaa !13
  %3 = load ptr, ptr %2, align 8
  %4 = getelementptr inbounds nuw %"class.gmx::GridSet", ptr %3, i32 0, i32 1
  %5 = call noundef nonnull align 8 dereferenceable(380) ptr @_ZNKSt6vectorIN3gmx4GridESaIS1_EEixEm(ptr noundef nonnull align 8 dereferenceable(24) %4, i64 noundef 0) #17
  %6 = call noundef i32 @_ZNK3gmx4Grid12atomIndexEndEv(ptr noundef nonnull align 8 dereferenceable(380) %5)
  ret i32 %6
}

; Function Attrs: mustprogress nounwind uwtable
define linkonce_odr noundef i32 @_ZNK3gmx7GridSet17numGridAtomsTotalEv(ptr noundef nonnull align 8 dereferenceable(232) %0) #1 comdat align 2 {
  %2 = alloca ptr, align 8
  store ptr %0, ptr %2, align 8, !tbaa !13
  %3 = load ptr, ptr %2, align 8
  %4 = getelementptr inbounds nuw %"class.gmx::GridSet", ptr %3, i32 0, i32 1
  %5 = getelementptr inbounds nuw %"class.gmx::GridSet", ptr %3, i32 0, i32 2
  %6 = load i32, ptr %5, align 8, !tbaa !411
  %7 = sub nsw i32 %6, 1
  %8 = sext i32 %7 to i64
  %9 = call noundef nonnull align 8 dereferenceable(380) ptr @_ZNKSt6vectorIN3gmx4GridESaIS1_EEixEm(ptr noundef nonnull align 8 dereferenceable(24) %4, i64 noundef %8) #17
  %10 = call noundef i32 @_ZNK3gmx4Grid12atomIndexEndEv(ptr noundef nonnull align 8 dereferenceable(380) %9)
  ret i32 %10
}

; Function Attrs: mustprogress nounwind uwtable
define linkonce_odr noundef zeroext i1 @_ZNK3gmx7GridSet31localAtomOrderMatchesNbnxmOrderEv(ptr noundef nonnull align 8 dereferenceable(232) %0) #1 comdat align 2 {
  %2 = alloca ptr, align 8
  store ptr %0, ptr %2, align 8, !tbaa !13
  %3 = load ptr, ptr %2, align 8
  %4 = getelementptr inbounds nuw %"class.gmx::GridSet", ptr %3, i32 0, i32 6
  %5 = load i8, ptr %4, align 1, !tbaa !15, !range !47, !noundef !48
  %6 = trunc i8 %5 to i1
  ret i1 %6
}

; Function Attrs: mustprogress nounwind uwtable
define linkonce_odr noundef nonnull align 8 dereferenceable(232) ptr @_ZNK3gmx10PairSearch7gridSetEv(ptr noundef nonnull align 8 dereferenceable(336) %0) #1 comdat align 2 {
  %2 = alloca ptr, align 8
  store ptr %0, ptr %2, align 8, !tbaa !11
  %3 = load ptr, ptr %2, align 8
  %4 = getelementptr inbounds nuw %"class.gmx::PairSearch", ptr %3, i32 0, i32 0
  ret ptr %4
}

; Function Attrs: mustprogress nounwind uwtable
define linkonce_odr noundef ptr @_ZNKSt10unique_ptrIN3gmx10PairSearchESt14default_deleteIS1_EEptEv(ptr noundef nonnull align 8 dereferenceable(8) %0) #1 comdat align 2 {
  %2 = alloca ptr, align 8
  store ptr %0, ptr %2, align 8, !tbaa !9
  %3 = load ptr, ptr %2, align 8
  %4 = call noundef ptr @_ZNKSt10unique_ptrIN3gmx10PairSearchESt14default_deleteIS1_EE3getEv(ptr noundef nonnull align 8 dereferenceable(8) %3) #17
  ret ptr %4
}

; Function Attrs: mustprogress uwtable
define noundef i32 @_ZNK3gmx18nonbonded_verlet_t11getNumAtomsENS_12AtomLocalityE(ptr noundef nonnull align 8 dereferenceable(64) %0, i32 noundef %1) #0 align 2 {
  %3 = alloca ptr, align 8
  %4 = alloca i32, align 4
  %5 = alloca i32, align 4
  %6 = alloca ptr, align 8
  store ptr %0, ptr %3, align 8, !tbaa !4
  store i32 %1, ptr %4, align 4, !tbaa !200
  %7 = load ptr, ptr %3, align 8
  call void @llvm.lifetime.start.p0(i64 4, ptr %5) #17
  store i32 0, ptr %5, align 4, !tbaa !59
  call void @llvm.lifetime.start.p0(i64 8, ptr %6) #17
  %8 = getelementptr inbounds nuw %"struct.gmx::nonbonded_verlet_t", ptr %7, i32 0, i32 1
  %9 = call noundef ptr @_ZNKSt10unique_ptrIN3gmx10PairSearchESt14default_deleteIS1_EEptEv(ptr noundef nonnull align 8 dereferenceable(8) %8) #17
  %10 = call noundef nonnull align 8 dereferenceable(232) ptr @_ZNK3gmx10PairSearch7gridSetEv(ptr noundef nonnull align 8 dereferenceable(336) %9)
  store ptr %10, ptr %6, align 8, !tbaa !13
  %11 = load ptr, ptr %6, align 8, !tbaa !13
  %12 = call noundef zeroext i1 @_ZNK3gmx7GridSet31localAtomOrderMatchesNbnxmOrderEv(ptr noundef nonnull align 8 dereferenceable(232) %11)
  br i1 %12, label %13, label %29

13:                                               ; preds = %2
  %14 = load i32, ptr %4, align 4, !tbaa !200
  switch i32 %14, label %28 [
    i32 2, label %15
    i32 0, label %18
    i32 1, label %21
    i32 3, label %27
  ]

15:                                               ; preds = %13
  %16 = load ptr, ptr %6, align 8, !tbaa !13
  %17 = call noundef i32 @_ZNK3gmx7GridSet17numGridAtomsTotalEv(ptr noundef nonnull align 8 dereferenceable(232) %16)
  store i32 %17, ptr %5, align 4, !tbaa !59
  br label %28

18:                                               ; preds = %13
  %19 = load ptr, ptr %6, align 8, !tbaa !13
  %20 = call noundef i32 @_ZNK3gmx7GridSet17numGridAtomsLocalEv(ptr noundef nonnull align 8 dereferenceable(232) %19)
  store i32 %20, ptr %5, align 4, !tbaa !59
  br label %28

21:                                               ; preds = %13
  %22 = load ptr, ptr %6, align 8, !tbaa !13
  %23 = call noundef i32 @_ZNK3gmx7GridSet17numGridAtomsTotalEv(ptr noundef nonnull align 8 dereferenceable(232) %22)
  %24 = load ptr, ptr %6, align 8, !tbaa !13
  %25 = call noundef i32 @_ZNK3gmx7GridSet17numGridAtomsLocalEv(ptr noundef nonnull align 8 dereferenceable(232) %24)
  %26 = sub nsw i32 %23, %25
  store i32 %26, ptr %5, align 4, !tbaa !59
  br label %28

27:                                               ; preds = %13
  br label %28

28:                                               ; preds = %13, %27, %21, %18, %15
  br label %45

29:                                               ; preds = %2
  %30 = load i32, ptr %4, align 4, !tbaa !200
  switch i32 %30, label %44 [
    i32 2, label %31
    i32 0, label %34
    i32 1, label %37
    i32 3, label %43
  ]

31:                                               ; preds = %29
  %32 = load ptr, ptr %6, align 8, !tbaa !13
  %33 = call noundef i32 @_ZNK3gmx7GridSet17numRealAtomsTotalEv(ptr noundef nonnull align 8 dereferenceable(232) %32)
  store i32 %33, ptr %5, align 4, !tbaa !59
  br label %44

34:                                               ; preds = %29
  %35 = load ptr, ptr %6, align 8, !tbaa !13
  %36 = call noundef i32 @_ZNK3gmx7GridSet17numRealAtomsLocalEv(ptr noundef nonnull align 8 dereferenceable(232) %35)
  store i32 %36, ptr %5, align 4, !tbaa !59
  br label %44

37:                                               ; preds = %29
  %38 = load ptr, ptr %6, align 8, !tbaa !13
  %39 = call noundef i32 @_ZNK3gmx7GridSet17numRealAtomsTotalEv(ptr noundef nonnull align 8 dereferenceable(232) %38)
  %40 = load ptr, ptr %6, align 8, !tbaa !13
  %41 = call noundef i32 @_ZNK3gmx7GridSet17numRealAtomsLocalEv(ptr noundef nonnull align 8 dereferenceable(232) %40)
  %42 = sub nsw i32 %39, %41
  store i32 %42, ptr %5, align 4, !tbaa !59
  br label %44

43:                                               ; preds = %29
  br label %44

44:                                               ; preds = %29, %43, %37, %34, %31
  br label %45

45:                                               ; preds = %44, %28
  %46 = load i32, ptr %5, align 4, !tbaa !59
  call void @llvm.lifetime.end.p0(i64 8, ptr %6) #17
  call void @llvm.lifetime.end.p0(i64 4, ptr %5) #17
  ret i32 %46
}