; Function Attrs: mustprogress nofree norecurse nosync nounwind willreturn memory(read, inaccessiblemem: none) uwtable
define noundef i32 @_ZNK3gmx18nonbonded_verlet_t11getNumAtomsENS_12AtomLocalityE(ptr noundef nonnull readonly align 8 captures(none) dereferenceable(64) %0, i32 noundef %1) local_unnamed_addr #0 align 2 {
  %3 = getelementptr inbounds nuw i8, ptr %0, i64 8
  %4 = load ptr, ptr %3, align 8, !tbaa !4
  %5 = getelementptr inbounds nuw i8, ptr %4, i64 125
  %6 = load i8, ptr %5, align 1, !tbaa !9, !range !41, !noundef !42
  %7 = trunc nuw i8 %6 to i1
  br i1 %7, label %8, label %59

8:                                                ; preds = %2
  switch i32 %1, label %72 [
    i32 2, label %9
    i32 0, label %24
    i32 1, label %35
  ]

9:                                                ; preds = %8
  %10 = getelementptr inbounds nuw i8, ptr %4, i64 24
  %11 = getelementptr inbounds nuw i8, ptr %4, i64 48
  %12 = load i32, ptr %11, align 8, !tbaa !217
  %13 = load ptr, ptr %10, align 8, !tbaa !84
  %14 = sext i32 %12 to i64
  %15 = getelementptr %"class.gmx::Grid", ptr %13, i64 %14
  %16 = getelementptr i8, ptr %15, i64 -284
  %17 = load i32, ptr %16, align 4, !tbaa !218
  %18 = getelementptr i8, ptr %15, i64 -288
  %19 = load i32, ptr %18, align 8, !tbaa !85
  %20 = add nsw i32 %19, %17
  %21 = getelementptr i8, ptr %15, i64 -372
  %22 = load i32, ptr %21, align 4, !tbaa !112
  %23 = mul nsw i32 %20, %22
  br label %72

24:                                               ; preds = %8
  %25 = getelementptr inbounds nuw i8, ptr %4, i64 24
  %26 = load ptr, ptr %25, align 8, !tbaa !84
  %27 = getelementptr inbounds nuw i8, ptr %26, i64 100
  %28 = load i32, ptr %27, align 4, !tbaa !218
  %29 = getelementptr inbounds nuw i8, ptr %26, i64 96
  %30 = load i32, ptr %29, align 8, !tbaa !85
  %31 = add nsw i32 %30, %28
  %32 = getelementptr inbounds nuw i8, ptr %26, i64 12
  %33 = load i32, ptr %32, align 4, !tbaa !112
  %34 = mul nsw i32 %31, %33
  br label %72

35:                                               ; preds = %8
  %36 = getelementptr inbounds nuw i8, ptr %4, i64 24
  %37 = getelementptr inbounds nuw i8, ptr %4, i64 48
  %38 = load i32, ptr %37, align 8, !tbaa !217
  %39 = load ptr, ptr %36, align 8, !tbaa !84
  %40 = sext i32 %38 to i64
  %41 = getelementptr %"class.gmx::Grid", ptr %39, i64 %40
  %42 = getelementptr i8, ptr %41, i64 -284
  %43 = load i32, ptr %42, align 4, !tbaa !218
  %44 = getelementptr i8, ptr %41, i64 -288
  %45 = load i32, ptr %44, align 8, !tbaa !85
  %46 = add nsw i32 %45, %43
  %47 = getelementptr i8, ptr %41, i64 -372
  %48 = load i32, ptr %47, align 4, !tbaa !112
  %49 = mul nsw i32 %46, %48
  %50 = getelementptr inbounds nuw i8, ptr %39, i64 100
  %51 = load i32, ptr %50, align 4, !tbaa !218
  %52 = getelementptr inbounds nuw i8, ptr %39, i64 96
  %53 = load i32, ptr %52, align 8, !tbaa !85
  %54 = add nsw i32 %53, %51
  %55 = getelementptr inbounds nuw i8, ptr %39, i64 12
  %56 = load i32, ptr %55, align 4, !tbaa !112
  %57 = mul nsw i32 %54, %56
  %58 = sub nsw i32 %49, %57
  br label %72

59:                                               ; preds = %2
  switch i32 %1, label %72 [
    i32 2, label %60
    i32 0, label %63
    i32 1, label %66
  ]

60:                                               ; preds = %59
  %61 = getelementptr inbounds nuw i8, ptr %4, i64 172
  %62 = load i32, ptr %61, align 4, !tbaa !219
  br label %72

63:                                               ; preds = %59
  %64 = getelementptr inbounds nuw i8, ptr %4, i64 168
  %65 = load i32, ptr %64, align 8, !tbaa !220
  br label %72

66:                                               ; preds = %59
  %67 = getelementptr inbounds nuw i8, ptr %4, i64 172
  %68 = load i32, ptr %67, align 4, !tbaa !219
  %69 = getelementptr inbounds nuw i8, ptr %4, i64 168
  %70 = load i32, ptr %69, align 8, !tbaa !220
  %71 = sub nsw i32 %68, %70
  br label %72

72:                                               ; preds = %59, %60, %63, %66, %8, %9, %24, %35
  %.0 = phi i32 [ 0, %8 ], [ %58, %35 ], [ %34, %24 ], [ %23, %9 ], [ 0, %59 ], [ %71, %66 ], [ %65, %63 ], [ %62, %60 ]
  ret i32 %.0
}